; Function Attrs: nounwind uwtable
define hidden i32 @internal_decode_alloc_buffer(ptr noundef readonly captures(none) %0, i32 noundef %1, ptr noundef captures(none) %2, ptr noundef captures(none) %3, i64 noundef %4) local_unnamed_addr #0 {
  %6 = load ptr, ptr %2, align 8, !tbaa !51
  %7 = icmp eq i64 %4, 0
  br i1 %7, label %.thread54, label %8

8:                                                ; preds = %5
  %.not = icmp eq ptr %6, null
  br i1 %.not, label %.thread, label %9

9:                                                ; preds = %8
  %10 = load i64, ptr %3, align 8, !tbaa !55
  %11 = icmp ult i64 %10, %4
  br i1 %11, label %12, label %.thread54

12:                                               ; preds = %9
  %.not26.i = icmp eq i64 %10, 0
  br i1 %.not26.i, label %34, label %13

13:                                               ; preds = %12
  %14 = getelementptr inbounds nuw i8, ptr %0, i64 224
  %15 = load ptr, ptr %14, align 8, !tbaa !64
  %.not27.i = icmp eq ptr %15, null
  br i1 %.not27.i, label %17, label %16

16:                                               ; preds = %13
  tail call void %15(i32 noundef %1, ptr noundef nonnull %6) #2
  br label %34

17:                                               ; preds = %13
  %18 = getelementptr inbounds nuw i8, ptr %0, i64 24
  %19 = load ptr, ptr %18, align 8, !tbaa !66
  %.not28.i = icmp eq ptr %19, null
  br i1 %.not28.i, label %internal_decode_free_buffer.exit, label %20

20:                                               ; preds = %17
  %21 = getelementptr inbounds nuw i8, ptr %0, i64 20
  %22 = load i32, ptr %21, align 4, !tbaa !67
  %23 = icmp slt i32 %22, 0
  br i1 %23, label %27, label %24

24:                                               ; preds = %20
  %25 = getelementptr inbounds nuw i8, ptr %19, i64 196
  %26 = load i32, ptr %25, align 4, !tbaa !61
  %.not29.i = icmp slt i32 %22, %26
  br i1 %.not29.i, label %31, label %27

27:                                               ; preds = %24, %20
  %28 = getelementptr inbounds nuw i8, ptr %19, i64 72
  %29 = load ptr, ptr %28, align 8, !tbaa !54
  %30 = tail call i32 (ptr, i32, ptr, ...) %29(ptr noundef nonnull %19, i32 noundef 4, ptr noundef nonnull @.str.1, i32 noundef %22) #2
  br label %internal_decode_free_buffer.exit

31:                                               ; preds = %24
  %32 = getelementptr inbounds nuw i8, ptr %19, i64 96
  %33 = load ptr, ptr %32, align 8, !tbaa !62
  tail call void %33(ptr noundef nonnull %6) #2
  br label %34

34:                                               ; preds = %31, %16, %12
  store ptr null, ptr %2, align 8, !tbaa !51
  br label %.thread

.thread:                                          ; preds = %8, %34
  store i64 0, ptr %3, align 8, !tbaa !55
  br label %internal_decode_free_buffer.exit

internal_decode_free_buffer.exit:                 ; preds = %17, %27, %.thread
  %35 = getelementptr inbounds nuw i8, ptr %0, i64 216
  %36 = load ptr, ptr %35, align 8, !tbaa !68
  %.not49 = icmp eq ptr %36, null
  br i1 %.not49, label %39, label %37

37:                                               ; preds = %internal_decode_free_buffer.exit
  %38 = tail call ptr %36(i32 noundef %1, i64 noundef %4) #2
  br label %57

39:                                               ; preds = %internal_decode_free_buffer.exit
  %40 = getelementptr inbounds nuw i8, ptr %0, i64 24
  %41 = load ptr, ptr %40, align 8, !tbaa !66
  %.not50 = icmp eq ptr %41, null
  br i1 %.not50, label %.thread54, label %42

42:                                               ; preds = %39
  %43 = getelementptr inbounds nuw i8, ptr %0, i64 20
  %44 = load i32, ptr %43, align 4, !tbaa !67
  %45 = icmp slt i32 %44, 0
  br i1 %45, label %49, label %46

46:                                               ; preds = %42
  %47 = getelementptr inbounds nuw i8, ptr %41, i64 196
  %48 = load i32, ptr %47, align 4, !tbaa !61
  %.not51 = icmp slt i32 %44, %48
  br i1 %.not51, label %53, label %49

49:                                               ; preds = %46, %42
  %50 = getelementptr inbounds nuw i8, ptr %41, i64 72
  %51 = load ptr, ptr %50, align 8, !tbaa !54
  %52 = tail call i32 (ptr, i32, ptr, ...) %51(ptr noundef nonnull %41, i32 noundef 4, ptr noundef nonnull @.str.1, i32 noundef %44) #2
  br label %.thread54

53:                                               ; preds = %46
  %54 = getelementptr inbounds nuw i8, ptr %41, i64 88
  %55 = load ptr, ptr %54, align 8, !tbaa !20
  %56 = tail call ptr %55(i64 noundef %4) #2
  br label %57

57:                                               ; preds = %53, %37
  %.040 = phi ptr [ %38, %37 ], [ %56, %53 ]
  %58 = icmp eq ptr %.040, null
  br i1 %58, label %59, label %77

59:                                               ; preds = %57
  %60 = getelementptr inbounds nuw i8, ptr %0, i64 24
  %61 = load ptr, ptr %60, align 8, !tbaa !66
  %.not52 = icmp eq ptr %61, null
  br i1 %.not52, label %.thread54, label %62

62:                                               ; preds = %59
  %63 = getelementptr inbounds nuw i8, ptr %0, i64 20
  %64 = load i32, ptr %63, align 4, !tbaa !67
  %65 = icmp slt i32 %64, 0
  br i1 %65, label %69, label %66

66:                                               ; preds = %62
  %67 = getelementptr inbounds nuw i8, ptr %61, i64 196
  %68 = load i32, ptr %67, align 4, !tbaa !61
  %.not53 = icmp slt i32 %64, %68
  br i1 %.not53, label %73, label %69

69:                                               ; preds = %66, %62
  %70 = getelementptr inbounds nuw i8, ptr %61, i64 72
  %71 = load ptr, ptr %70, align 8, !tbaa !54
  %72 = tail call i32 (ptr, i32, ptr, ...) %71(ptr noundef nonnull %61, i32 noundef 4, ptr noundef nonnull @.str.1, i32 noundef %64) #2
  br label %.thread54

73:                                               ; preds = %66
  %74 = getelementptr inbounds nuw i8, ptr %61, i64 72
  %75 = load ptr, ptr %74, align 8, !tbaa !54
  %76 = tail call i32 (ptr, i32, ptr, ...) %75(ptr noundef nonnull %61, i32 noundef 1, ptr noundef nonnull @.str.3, i64 noundef %4) #2
  br label %.thread54

77:                                               ; preds = %57
  store ptr %.040, ptr %2, align 8, !tbaa !51
  store i64 %4, ptr %3, align 8, !tbaa !55
  br label %.thread54

.thread54:                                        ; preds = %39, %49, %9, %77, %69, %73, %59, %5
  %.0 = phi i32 [ 0, %5 ], [ %72, %69 ], [ %76, %73 ], [ 2, %59 ], [ 0, %77 ], [ 0, %9 ], [ 2, %39 ], [ %52, %49 ]
  ret i32 %.0
}